; Function Attrs: mustprogress nofree norecurse nosync nounwind willreturn memory(argmem: write) uwtable
define void @_ZN6google8protobuf21MethodDescriptorProtoC2EPNS0_5ArenaE(ptr nocapture noundef nonnull writeonly align 8 dereferenceable(64) %this, ptr noundef %arena) unnamed_addr #5 align 2 personality ptr @__gxx_personality_v0 {
invoke.cont:
  %_internal_metadata_.i.i = getelementptr inbounds i8, ptr %this, i64 8
  %0 = ptrtoint ptr %arena to i64
  store i64 %0, ptr %_internal_metadata_.i.i, align 8
  store ptr getelementptr inbounds ({ [13 x ptr] }, ptr @_ZTVN6google8protobuf21MethodDescriptorProtoE, i64 0, i32 0, i64 2), ptr %this, align 8
  %arrayinit.cur.i.i.ptr.i = getelementptr inbounds i8, ptr %this, i64 16
  store i32 0, ptr %arrayinit.cur.i.i.ptr.i, align 8
  %arrayinit.end.i.i.i = getelementptr inbounds i8, ptr %this, i64 20
  store i32 0, ptr %arrayinit.end.i.i.i, align 4
  %name_.i.i = getelementptr inbounds i8, ptr %this, i64 24
  store ptr @_ZN6google8protobuf8internal26fixed_address_empty_stringB5cxx11E, ptr %name_.i.i, align 8
  %input_type_.i.i = getelementptr inbounds i8, ptr %this, i64 32
  store ptr @_ZN6google8protobuf8internal26fixed_address_empty_stringB5cxx11E, ptr %input_type_.i.i, align 8
  %output_type_.i.i = getelementptr inbounds i8, ptr %this, i64 40
  store ptr @_ZN6google8protobuf8internal26fixed_address_empty_stringB5cxx11E, ptr %output_type_.i.i, align 8
  %add.ptr.i = getelementptr inbounds i8, ptr %this, i64 48
  tail call void @llvm.memset.p0.i64(ptr noundef nonnull align 8 dereferenceable(10) %add.ptr.i, i8 0, i64 10, i1 false)
  ret void
}